; Function Attrs: nounwind uwtable
define internal i32 @cff_builder_add_point1(ptr noundef readonly captures(none) %0, i64 noundef %1, i64 noundef %2) #0 {
  %4 = getelementptr inbounds nuw i8, ptr %0, i64 24
  %5 = load ptr, ptr %4, align 8
  %6 = getelementptr inbounds nuw i8, ptr %5, i64 26
  %7 = load i16, ptr %6, align 2
  %8 = zext i16 %7 to i32
  %9 = getelementptr inbounds nuw i8, ptr %5, i64 98
  %10 = load i16, ptr %9, align 2
  %11 = zext i16 %10 to i32
  %12 = add nuw nsw i32 %8, 1
  %13 = add nuw nsw i32 %12, %11
  %14 = getelementptr inbounds nuw i8, ptr %5, i64 8
  %15 = load i32, ptr %14, align 8
  %.not.i = icmp ugt i32 %13, %15
  br i1 %.not.i, label %cff_check_points.exit, label %cff_check_points.exit.thread

cff_check_points.exit:                            ; preds = %3
  %16 = tail call i32 @FT_GlyphLoader_CheckPoints(ptr noundef nonnull %5, i32 noundef 1, i32 noundef 0) #20
  %.not = icmp eq i32 %16, 0
  br i1 %.not, label %cff_check_points.exit.thread, label %37

cff_check_points.exit.thread:                     ; preds = %3, %cff_check_points.exit
  %17 = getelementptr inbounds nuw i8, ptr %0, i64 40
  %18 = load ptr, ptr %17, align 8
  %19 = getelementptr inbounds nuw i8, ptr %0, i64 129
  %20 = load i8, ptr %19, align 1
  %.not.i5 = icmp eq i8 %20, 0
  br i1 %.not.i5, label %cff_builder_add_point.exit, label %21

21:                                               ; preds = %cff_check_points.exit.thread
  %22 = getelementptr inbounds nuw i8, ptr %18, i64 8
  %23 = load ptr, ptr %22, align 8
  %24 = getelementptr inbounds nuw i8, ptr %18, i64 2
  %25 = load i16, ptr %24, align 2
  %26 = zext i16 %25 to i64
  %27 = getelementptr inbounds nuw %struct.FT_Vector_, ptr %23, i64 %26
  %28 = getelementptr inbounds nuw i8, ptr %18, i64 16
  %29 = load ptr, ptr %28, align 8
  %30 = getelementptr inbounds nuw i8, ptr %29, i64 %26
  %31 = ashr i64 %1, 10
  store i64 %31, ptr %27, align 8
  %32 = ashr i64 %2, 10
  %33 = getelementptr inbounds nuw i8, ptr %27, i64 8
  store i64 %32, ptr %33, align 8
  store i8 1, ptr %30, align 1
  br label %cff_builder_add_point.exit

cff_builder_add_point.exit:                       ; preds = %cff_check_points.exit.thread, %21
  %34 = getelementptr inbounds nuw i8, ptr %18, i64 2
  %35 = load i16, ptr %34, align 2
  %36 = add i16 %35, 1
  store i16 %36, ptr %34, align 2
  br label %37

37:                                               ; preds = %cff_builder_add_point.exit, %cff_check_points.exit
  %38 = phi i32 [ 0, %cff_builder_add_point.exit ], [ %16, %cff_check_points.exit ]
  ret i32 %38
}